target datalayout = "e-m:e-p270:32:32-p271:32:32-p272:64:64-i64:64-i128:128-f80:128-n8:16:32:64-S128"
target triple = "x86_64-pc-linux-gnu"

%struct.curltime = type { i64, i32 }
%struct.pgrs_dir = type { i64, i64, i64, %struct.pgrs_measure }
%struct.pgrs_measure = type { %struct.curltime, i64 }

; Function Attrs: nounwind uwtable
define hidden i64 @Curl_pgrsLimitWaitTime(ptr noundef %0, i64 noundef %1, i64 %2, i32 %3) #0 {
  %5 = alloca i64, align 8
  %6 = alloca %struct.curltime, align 8
  %7 = alloca ptr, align 8
  %8 = alloca i64, align 8
  %9 = alloca i64, align 8
  %10 = alloca i64, align 8
  %11 = alloca i64, align 8
  %12 = alloca i32, align 4
  %13 = getelementptr inbounds nuw { i64, i32 }, ptr %6, i32 0, i32 0
  store i64 %2, ptr %13, align 8
  %14 = getelementptr inbounds nuw { i64, i32 }, ptr %6, i32 0, i32 1
  store i32 %3, ptr %14, align 8
  store ptr %0, ptr %7, align 8, !tbaa !99
  store i64 %1, ptr %8, align 8, !tbaa !85
  call void @llvm.lifetime.start.p0(i64 8, ptr %9) #5
  %15 = load ptr, ptr %7, align 8, !tbaa !99
  %16 = getelementptr inbounds nuw %struct.pgrs_dir, ptr %15, i32 0, i32 1
  %17 = load i64, ptr %16, align 8, !tbaa !101
  %18 = load ptr, ptr %7, align 8, !tbaa !99
  %19 = getelementptr inbounds nuw %struct.pgrs_dir, ptr %18, i32 0, i32 3
  %20 = getelementptr inbounds nuw %struct.pgrs_measure, ptr %19, i32 0, i32 1
  %21 = load i64, ptr %20, align 8, !tbaa !102
  %22 = sub nsw i64 %17, %21
  store i64 %22, ptr %9, align 8, !tbaa !85
  call void @llvm.lifetime.start.p0(i64 8, ptr %10) #5
  call void @llvm.lifetime.start.p0(i64 8, ptr %11) #5
  %23 = load i64, ptr %8, align 8, !tbaa !85
  %24 = icmp ne i64 %23, 0
  br i1 %24, label %25, label %28

25:                                               ; preds = %4
  %26 = load i64, ptr %9, align 8, !tbaa !85
  %27 = icmp ne i64 %26, 0
  br i1 %27, label %29, label %28

28:                                               ; preds = %25, %4
  store i64 0, ptr %5, align 8
  store i32 1, ptr %12, align 4
  br label %69

29:                                               ; preds = %25
  %30 = load i64, ptr %9, align 8, !tbaa !85
  %31 = icmp slt i64 %30, 9223372036854775
  br i1 %31, label %32, label %37

32:                                               ; preds = %29
  %33 = load i64, ptr %9, align 8, !tbaa !85
  %34 = mul nsw i64 1000, %33
  %35 = load i64, ptr %8, align 8, !tbaa !85
  %36 = sdiv i64 %34, %35
  store i64 %36, ptr %10, align 8, !tbaa !85
  br label %48

37:                                               ; preds = %29
  %38 = load i64, ptr %9, align 8, !tbaa !85
  %39 = load i64, ptr %8, align 8, !tbaa !85
  %40 = sdiv i64 %38, %39
  store i64 %40, ptr %10, align 8, !tbaa !85
  %41 = load i64, ptr %10, align 8, !tbaa !85
  %42 = icmp slt i64 %41, 9223372036854775
  br i1 %42, label %43, label %46

43:                                               ; preds = %37
  %44 = load i64, ptr %10, align 8, !tbaa !85
  %45 = mul nsw i64 %44, 1000
  store i64 %45, ptr %10, align 8, !tbaa !85
  br label %47

46:                                               ; preds = %37
  store i64 9223372036854775807, ptr %10, align 8, !tbaa !85
  br label %47

47:                                               ; preds = %46, %43
  br label %48

48:                                               ; preds = %47, %32
  %49 = load ptr, ptr %7, align 8, !tbaa !99
  %50 = getelementptr inbounds nuw %struct.pgrs_dir, ptr %49, i32 0, i32 3
  %51 = getelementptr inbounds nuw %struct.pgrs_measure, ptr %50, i32 0, i32 0
  %52 = getelementptr inbounds nuw { i64, i32 }, ptr %6, i32 0, i32 0
  %53 = load i64, ptr %52, align 8
  %54 = getelementptr inbounds nuw { i64, i32 }, ptr %6, i32 0, i32 1
  %55 = load i32, ptr %54, align 8
  %56 = getelementptr inbounds nuw { i64, i32 }, ptr %51, i32 0, i32 0
  %57 = load i64, ptr %56, align 8
  %58 = getelementptr inbounds nuw { i64, i32 }, ptr %51, i32 0, i32 1
  %59 = load i32, ptr %58, align 8
  %60 = call i64 @Curl_timediff_ceil(i64 %53, i32 %55, i64 %57, i32 %59)
  store i64 %60, ptr %11, align 8, !tbaa !85
  %61 = load i64, ptr %11, align 8, !tbaa !85
  %62 = load i64, ptr %10, align 8, !tbaa !85
  %63 = icmp slt i64 %61, %62
  br i1 %63, label %64, label %68

64:                                               ; preds = %48
  %65 = load i64, ptr %10, align 8, !tbaa !85
  %66 = load i64, ptr %11, align 8, !tbaa !85
  %67 = sub nsw i64 %65, %66
  store i64 %67, ptr %5, align 8
  store i32 1, ptr %12, align 4
  br label %69

68:                                               ; preds = %48
  store i64 0, ptr %5, align 8
  store i32 1, ptr %12, align 4
  br label %69

69:                                               ; preds = %68, %64, %28
  call void @llvm.lifetime.end.p0(i64 8, ptr %11) #5
  call void @llvm.lifetime.end.p0(i64 8, ptr %10) #5
  call void @llvm.lifetime.end.p0(i64 8, ptr %9) #5
  %70 = load i64, ptr %5, align 8
  ret i64 %70
}