; Function Attrs: nounwind uwtable
define hidden i64 @Curl_pgrsLimitWaitTime(ptr noundef readonly captures(none) %0, i64 noundef %1, i64 %2, i32 %3) local_unnamed_addr #0 {
  %5 = getelementptr inbounds nuw i8, ptr %0, i64 8
  %6 = load i64, ptr %5, align 8, !tbaa !90
  %7 = getelementptr inbounds nuw i8, ptr %0, i64 24
  %8 = getelementptr inbounds nuw i8, ptr %0, i64 40
  %9 = load i64, ptr %8, align 8, !tbaa !105
  %10 = sub nsw i64 %6, %9
  %11 = icmp ne i64 %1, 0
  %12 = icmp ne i64 %6, %9
  %or.cond = select i1 %11, i1 %12, i1 false
  br i1 %or.cond, label %13, label %29

13:                                               ; preds = %4
  %14 = icmp slt i64 %10, 9223372036854775
  br i1 %14, label %15, label %18

15:                                               ; preds = %13
  %16 = mul nsw i64 %10, 1000
  %17 = sdiv i64 %16, %1
  br label %22

18:                                               ; preds = %13
  %19 = sdiv i64 %10, %1
  %20 = icmp slt i64 %19, 9223372036854775
  %21 = mul nsw i64 %19, 1000
  %spec.select = select i1 %20, i64 %21, i64 9223372036854775807
  br label %22

22:                                               ; preds = %18, %15
  %.017 = phi i64 [ %17, %15 ], [ %spec.select, %18 ]
  %23 = load i64, ptr %7, align 8
  %24 = getelementptr inbounds nuw i8, ptr %0, i64 32
  %25 = load i32, ptr %24, align 8
  %26 = tail call i64 @Curl_timediff_ceil(i64 %2, i32 %3, i64 %23, i32 %25) #8
  %27 = icmp slt i64 %26, %.017
  %28 = sub nsw i64 %.017, %26
  %spec.select22 = select i1 %27, i64 %28, i64 0
  br label %29

29:                                               ; preds = %22, %4
  %.0 = phi i64 [ 0, %4 ], [ %spec.select22, %22 ]
  ret i64 %.0
}